

 Start  Stop   Length Name                   Class
 00000H 00001H 00002H BASE                   PROG
 00002H 08D3DH 08D3CH PROG                   PROG
 08D40H 09B6BH 00E2CH DATA                   DATA
 09B70H 09C6FH 00100H STACK                  DATA

 Origin   Group
 08D4:0   DGROUP
 0000:0   PGROUP

  Address         Publics by Name

 0000:8366       ALLMEM
 0000:57E4       ALLOC
 08D4:0DC8       ARGC
 08D4:0DCA       ARGV
 0000:75B3       BDOS
 0000:8382       BLDMEM
 08D4:0925       BNDX
 0000:0002       C
 0000:677B       CALLOC
 0000:65E9       CLOSE
 0000:5FCE       CREAT
 0000:8C77       CXC33
 0000:87A0       CXD33
 0000:8D3D       CXFERR
 0000:8C94       CXFNM4
 0000:8D0B       CXFXT5
 0000:5D2F       CXM33
 0000:8C5B       CXV54
 0000:89DC       CXVDF
 0000:8853       CXVFD
 08D4:092C       DBV_ERRC
 08D4:0602       DBV_FOLD
 08D4:05FE       DBV_IFP
 08D4:0600       DBV_MACR
 08D4:0574       DBV_TOKE
 08D4:0578       DBV_TSTR
 08D4:0576       DBV_TVAL
 0000:29A9       DB_ADD
 0000:4771       DB_AGET
 0000:47B3       DB_APUT
 0000:3E2E       DB_BIND
 0000:2950       DB_CMP
 0000:21BB       DB_COMPI
 0000:57C1       DB_CVBYT
 0000:5794       DB_CVWOR
 0000:3C3B       DB_DONE
 0000:04FD       DB_ERTXT
 0000:07DC       DB_EXPOR
 0000:09C7       DB_EXTRA
 0000:229A       DB_FCODE
 0000:5787       DB_FERRO
 0000:3D13       DB_FETCH
 0000:300E       DB_FLUSH
 0000:3EA3       DB_GET
 0000:3051       DB_GLINE
 0000:30B7       DB_IFILE
 0000:0600       DB_IMPOR
 0000:0B72       DB_INTER
 0000:3134       DB_KILL
 0000:577A       DB_NERRO
 0000:32C0       DB_NTOKE
 0000:1107       DB_PARSE
 0000:2FAF       DB_PROMP
 0000:3EED       DB_PUT
 0000:54F2       DB_RBEGI
 0000:0419       DB_RCATT
 0000:037B       DB_RCDON
 0000:0208       DB_RCHEA
 0000:5305       DB_RCLOS
 0000:541D       DB_RCOMP
 0000:01A8       DB_RCREA
 0000:02F1       DB_RCTUP
 0000:5569       DB_RDELE
 0000:3B47       DB_RETRI
 0000:54FF       DB_RFETC
 0000:55F1       DB_RGET
 0000:522A       DB_ROPEN
 0000:5675       DB_RPUT
 0000:5591       DB_RSTOR
 0000:5541       DB_RUPDA
 0000:3F3D       DB_SATTR
 0000:2FC1       DB_SCAN
 0000:32E2       DB_SCMP
 0000:3A37       DB_SELEC
 0000:2F8B       DB_SINIT
 0000:3318       DB_SNCMP
 0000:4901       DB_SORT
 0000:0937       DB_SQUEE
 0000:3DE2       DB_STORE
 0000:2A9E       DB_SUB
 0000:4FE6       DB_TENTR
 0000:4F7C       DB_TFOOT
 0000:4E49       DB_THEAD
 0000:1DC8       DB_TO
 0000:319A       DB_TOKEN
 0000:3D96       DB_UPDAT
 0000:0C28       DB_XAND
 0000:0DE7       DB_XEQL
 0000:0E04       DB_XGEQ
 0000:0E21       DB_XGTR
 0000:0DCA       DB_XLEQ
 0000:0DAD       DB_XLSS
 0000:0E3E       DB_XNEQ
 0000:0D36       DB_XNOT
 0000:32D1       DB_XNTOK
 0000:0C45       DB_XOR
 0000:0BFE       DB_XPUSH
 0000:0BF7       DB_XSTOP
 0000:3253       DB_XTOKE
 08D4:0E0E       ERRNO
 0000:66DA       EXIT
 0000:5BCC       FCLOSE
 0000:665D       FGETC
 0000:5CB1       FGETS
 0000:59D5       FOPEN
 0000:72C6       FPRINTF
 0000:6697       FPUTC
 0000:67BD       FREE
 0000:5A25       FREOPEN
 0000:6902       FSEEK
 0000:69A4       FTELL
 0000:7092       GETCH
 0000:70C5       GETCHE
 0000:5800       GETCX
 0000:8425       GETMEM
 0000:844B       GETML
 0000:5C2F       GETS
 0000:7150       KBHIT
 0000:86FC       LSBRK
 0000:64F1       LSEEK
 0000:0153       MAIN
 0000:6731       MALLOC
 0000:5DE8       OPEN
 0000:67E6       PRINTF
 0000:70F8       PUTCH
 0000:8771       RBRK
 0000:5FFC       READ
 0000:8568       RLSMEM
 0000:8591       RLSML
 0000:8328       RSTMEM
 0000:8742       SBRK
 0000:830B       SETMEM
 0000:8407       SIZMEM
 0000:7201       SPRINTF
 0000:6E06       SSCANF
 0000:6F48       STCCPY
 0000:71C9       STRCAT
 0000:717A       STRCMP
 0000:6DDE       STRCPY
 0000:6DAF       STRLEN
 0000:5980       STRNCMP
 0000:7123       UNGETCH
 0000:6642       UNLINK
 0000:62F2       WRITE
 0000:014A       XCEXIT
 0000:0136       XCOVF
 0000:7546       _AGET
 0000:7563       _APUT
 08D4:0012       _BASE
 08D4:0E2A       _BUFSIZ
 0000:74E4       _CGET
 0000:7501       _CGETE
 0000:831C       _CGETS
 0000:751E       _CPUT
 08D4:0CC0       _CTYPE
 08D4:0B4E       _DNBS
 0000:74D4       _EXIT
 0000:74A6       _FCHGM
 0000:7416       _FCLOSE
 0000:73E2       _FCREAT
 0000:74C5       _FGDI
 0000:6A3B       _FILBF
 0000:6B50       _FLSBF
 08D4:0370       _FMODE
 0000:73FC       _FOPEN
 0000:742D       _FREAD
 0000:748F       _FRMV
 0000:746B       _FSEEK
 0000:744C       _FWRITE
 08D4:0014       _INAME
 08D4:09E6       _IOB
 08D4:0E10       _IOMODE
 0000:758B       _LPUT
 0000:6F9E       _MAIN
 08D4:0058       _MBASE
 08D4:0E26       _MELT
 08D4:005A       _MNEXT
 08D4:005C       _MSIZE
 08D4:0034       _ONAME
 08D4:0E0C       _OSERR
 0000:7B70       _PFMT
 08D4:0E22       _POOL
 08D4:0054       _PSP
 0000:75C5       _SFMT
 08D4:0DC6       _STACK
 08D4:0010       _TOP
 08D4:0AFE       _UFBS
 08D4:0002       _VER

  Address         Publics by Value

 0000:0002       C
 0000:0136       XCOVF
 0000:014A       XCEXIT
 0000:0153       MAIN
 0000:01A8       DB_RCREA
 0000:0208       DB_RCHEA
 0000:02F1       DB_RCTUP
 0000:037B       DB_RCDON
 0000:0419       DB_RCATT
 0000:04FD       DB_ERTXT
 0000:0600       DB_IMPOR
 0000:07DC       DB_EXPOR
 0000:0937       DB_SQUEE
 0000:09C7       DB_EXTRA
 0000:0B72       DB_INTER
 0000:0BF7       DB_XSTOP
 0000:0BFE       DB_XPUSH
 0000:0C28       DB_XAND
 0000:0C45       DB_XOR
 0000:0D36       DB_XNOT
 0000:0DAD       DB_XLSS
 0000:0DCA       DB_XLEQ
 0000:0DE7       DB_XEQL
 0000:0E04       DB_XGEQ
 0000:0E21       DB_XGTR
 0000:0E3E       DB_XNEQ
 0000:1107       DB_PARSE
 0000:1DC8       DB_TO
 0000:21BB       DB_COMPI
 0000:229A       DB_FCODE
 0000:2950       DB_CMP
 0000:29A9       DB_ADD
 0000:2A9E       DB_SUB
 0000:2F8B       DB_SINIT
 0000:2FAF       DB_PROMP
 0000:2FC1       DB_SCAN
 0000:300E       DB_FLUSH
 0000:3051       DB_GLINE
 0000:30B7       DB_IFILE
 0000:3134       DB_KILL
 0000:319A       DB_TOKEN
 0000:3253       DB_XTOKE
 0000:32C0       DB_NTOKE
 0000:32D1       DB_XNTOK
 0000:32E2       DB_SCMP
 0000:3318       DB_SNCMP
 0000:3A37       DB_SELEC
 0000:3B47       DB_RETRI
 0000:3C3B       DB_DONE
 0000:3D13       DB_FETCH
 0000:3D96       DB_UPDAT
 0000:3DE2       DB_STORE
 0000:3E2E       DB_BIND
 0000:3EA3       DB_GET
 0000:3EED       DB_PUT
 0000:3F3D       DB_SATTR
 0000:4771       DB_AGET
 0000:47B3       DB_APUT
 0000:4901       DB_SORT
 0000:4E49       DB_THEAD
 0000:4F7C       DB_TFOOT
 0000:4FE6       DB_TENTR
 0000:522A       DB_ROPEN
 0000:5305       DB_RCLOS
 0000:541D       DB_RCOMP
 0000:54F2       DB_RBEGI
 0000:54FF       DB_RFETC
 0000:5541       DB_RUPDA
 0000:5569       DB_RDELE
 0000:5591       DB_RSTOR
 0000:55F1       DB_RGET
 0000:5675       DB_RPUT
 0000:577A       DB_NERRO
 0000:5787       DB_FERRO
 0000:5794       DB_CVWOR
 0000:57C1       DB_CVBYT
 0000:57E4       ALLOC
 0000:5800       GETCX
 0000:5980       STRNCMP
 0000:59D5       FOPEN
 0000:5A25       FREOPEN
 0000:5BCC       FCLOSE
 0000:5C2F       GETS
 0000:5CB1       FGETS
 0000:5D2F       CXM33
 0000:5DE8       OPEN
 0000:5FCE       CREAT
 0000:5FFC       READ
 0000:62F2       WRITE
 0000:64F1       LSEEK
 0000:65E9       CLOSE
 0000:6642       UNLINK
 0000:665D       FGETC
 0000:6697       FPUTC
 0000:66DA       EXIT
 0000:6731       MALLOC
 0000:677B       CALLOC
 0000:67BD       FREE
 0000:67E6       PRINTF
 0000:6902       FSEEK
 0000:69A4       FTELL
 0000:6A3B       _FILBF
 0000:6B50       _FLSBF
 0000:6DAF       STRLEN
 0000:6DDE       STRCPY
 0000:6E06       SSCANF
 0000:6F48       STCCPY
 0000:6F9E       _MAIN
 0000:7092       GETCH
 0000:70C5       GETCHE
 0000:70F8       PUTCH
 0000:7123       UNGETCH
 0000:7150       KBHIT
 0000:717A       STRCMP
 0000:71C9       STRCAT
 0000:7201       SPRINTF
 0000:72C6       FPRINTF
 0000:73E2       _FCREAT
 0000:73FC       _FOPEN
 0000:7416       _FCLOSE
 0000:742D       _FREAD
 0000:744C       _FWRITE
 0000:746B       _FSEEK
 0000:748F       _FRMV
 0000:74A6       _FCHGM
 0000:74C5       _FGDI
 0000:74D4       _EXIT
 0000:74E4       _CGET
 0000:7501       _CGETE
 0000:751E       _CPUT
 0000:7546       _AGET
 0000:7563       _APUT
 0000:758B       _LPUT
 0000:75B3       BDOS
 0000:75C5       _SFMT
 0000:7B70       _PFMT
 0000:830B       SETMEM
 0000:831C       _CGETS
 0000:8328       RSTMEM
 0000:8366       ALLMEM
 0000:8382       BLDMEM
 0000:8407       SIZMEM
 0000:8425       GETMEM
 0000:844B       GETML
 0000:8568       RLSMEM
 0000:8591       RLSML
 0000:86FC       LSBRK
 0000:8742       SBRK
 0000:8771       RBRK
 0000:87A0       CXD33
 0000:8853       CXVFD
 0000:89DC       CXVDF
 0000:8C5B       CXV54
 0000:8C77       CXC33
 0000:8C94       CXFNM4
 0000:8D0B       CXFXT5
 0000:8D3D       CXFERR
 08D4:0002       _VER
 08D4:0010       _TOP
 08D4:0012       _BASE
 08D4:0014       _INAME
 08D4:0034       _ONAME
 08D4:0054       _PSP
 08D4:0058       _MBASE
 08D4:005A       _MNEXT
 08D4:005C       _MSIZE
 08D4:0370       _FMODE
 08D4:0574       DBV_TOKE
 08D4:0576       DBV_TVAL
 08D4:0578       DBV_TSTR
 08D4:05FE       DBV_IFP
 08D4:0600       DBV_MACR
 08D4:0602       DBV_FOLD
 08D4:0925       BNDX
 08D4:092C       DBV_ERRC
 08D4:09E6       _IOB
 08D4:0AFE       _UFBS
 08D4:0B4E       _DNBS
 08D4:0CC0       _CTYPE
 08D4:0DC6       _STACK
 08D4:0DC8       ARGC
 08D4:0DCA       ARGV
 08D4:0E0C       _OSERR
 08D4:0E0E       ERRNO
 08D4:0E10       _IOMODE
 08D4:0E22       _POOL
 08D4:0E26       _MELT
 08D4:0E2A       _BUFSIZ

Program entry point at 0000:0002
